(dp1
S'body'
p2
(dp3
S'sortable'
p4
I3
sS'sql'
p5
S'TEXT'
p6
sS'length'
p7
I32768
sS'notnull'
p8
I00
sS'unique'
p9
I00
sS'type'
p10
S'text'
p11
ssS'id'
p12
(dp13
S'length'
p14
I512
sS'unique'
p15
I00
sS'sortable'
p16
I1
sS'sql'
p17
S'INTEGER PRIMARY KEY AUTOINCREMENT'
p18
sS'notnull'
p19
I00
sS'type'
p20
S'id'
p21
ssS'title'
p22
(dp23
g14
I32768
sg15
I00
sg16
I2
sg17
S'TEXT'
p24
sg19
I00
sg20
S'text'
p25
ss.